; Function Attrs: mustprogress nofree norecurse nosync nounwind willreturn memory(read, inaccessiblemem: none) uwtable
define hidden noundef i64 @_ZNK15XPhysicalMemory4sizeEv(ptr nocapture noundef nonnull readonly align 8 dereferenceable(16) %0) local_unnamed_addr #2 align 2 {
  %2 = load i32, ptr %0, align 8
  %3 = icmp sgt i32 %2, 0
  br i1 %3, label %.lr.ph, label %._crit_edge

.lr.ph:                                           ; preds = %1
  %4 = getelementptr inbounds i8, ptr %0, i64 8
  %5 = load ptr, ptr %4, align 8
  %wide.trip.count = zext nneg i32 %2 to i64
  br label %6

6:                                                ; preds = %.lr.ph, %6
  %indvars.iv = phi i64 [ 0, %.lr.ph ], [ %indvars.iv.next, %6 ]
  %.056 = phi i64 [ 0, %.lr.ph ], [ %12, %6 ]
  %7 = getelementptr inbounds %class.XPhysicalMemorySegment, ptr %5, i64 %indvars.iv
  %8 = getelementptr inbounds i8, ptr %7, i64 8
  %9 = load i64, ptr %8, align 8
  %10 = load i64, ptr %7, align 8
  %11 = add i64 %9, %.056
  %12 = sub i64 %11, %10
  %indvars.iv.next = add nuw nsw i64 %indvars.iv, 1
  %exitcond.not = icmp eq i64 %indvars.iv.next, %wide.trip.count
  br i1 %exitcond.not, label %._crit_edge, label %6, !llvm.loop !10

._crit_edge:                                      ; preds = %6, %1
  %.05.lcssa = phi i64 [ 0, %1 ], [ %12, %6 ]
  ret i64 %.05.lcssa
}